(lp0
V100_nanoML.djctd
p1
aV101_nanoML.djctd
p2
aV102_nanoML.djctd
p3
aV103_nanoML.djctd
p4
aV104_nanoML.djctd
p5
aV105_nanoML.djctd
p6
aV106_nanoML.djctd
p7
aV107_nanoML.djctd
p8
aV108_nanoML.djctd
p9
aV109_nanoML.djctd
p10
aV10_nanoML.djctd
p11
aV110_nanoML.djctd
p12
aV111_nanoML.djctd
p13
aV112_nanoML.djctd
p14
aV113_nanoML.djctd
p15
aV114_nanoML.djctd
p16
aV115_nanoML.djctd
p17
aV116_nanoML.djctd
p18
aV117_nanoML.djctd
p19
aV118_nanoML.djctd
p20
aV119_nanoML.djctd
p21
aV11_nanoML.djctd
p22
aV120_nanoML.djctd
p23
aV121_nanoML.djctd
p24
aV122_nanoML.djctd
p25
aV123_nanoML.djctd
p26
aV124_nanoML.djctd
p27
aV125_nanoML.djctd
p28
aV126_nanoML.djctd
p29
aV127_nanoML.djctd
p30
aV128_nanoML.djctd
p31
aV129_nanoML.djctd
p32
aV12_nanoML.djctd
p33
aV130_nanoML.djctd
p34
aV131_nanoML.djctd
p35
aV132_nanoML.djctd
p36
aV133_nanoML.djctd
p37
aV134_nanoML.djctd
p38
aV135_nanoML.djctd
p39
aV136_nanoML.djctd
p40
aV137_nanoML.djctd
p41
aV138_nanoML.djctd
p42
aV139_nanoML.djctd
p43
aV13_nanoML.djctd
p44
aV140_nanoML.djctd
p45
aV141_nanoML.djctd
p46
aV142_nanoML.djctd
p47
aV143_nanoML.djctd
p48
aV144_nanoML.djctd
p49
aV145_nanoML.djctd
p50
aV146_nanoML.djctd
p51
aV147_nanoML.djctd
p52
aV148_nanoML.djctd
p53
aV149_nanoML.djctd
p54
aV14_nanoML.djctd
p55
aV150_nanoML.djctd
p56
aV151_nanoML.djctd
p57
aV152_nanoML.djctd
p58
aV153_nanoML.djctd
p59
aV154_nanoML.djctd
p60
aV155_nanoML.djctd
p61
aV156_nanoML.djctd
p62
aV157_nanoML.djctd
p63
aV158_nanoML.djctd
p64
aV159_nanoML.djctd
p65
aV15_nanoML.djctd
p66
aV160_nanoML.djctd
p67
aV161_nanoML.djctd
p68
aV162_nanoML.djctd
p69
aV163_nanoML.djctd
p70
aV164_nanoML.djctd
p71
aV165_nanoML.djctd
p72
aV166_nanoML.djctd
p73
aV167_nanoML.djctd
p74
aV168_nanoML.djctd
p75
aV169_nanoML.djctd
p76
aV16_nanoML.djctd
p77
aV170_nanoML.djctd
p78
aV171_nanoML.djctd
p79
aV172_nanoML.djctd
p80
aV173_nanoML.djctd
p81
aV174_nanoML.djctd
p82
aV175_nanoML.djctd
p83
aV176_nanoML.djctd
p84
aV177_nanoML.djctd
p85
aV178_nanoML.djctd
p86
aV179_nanoML.djctd
p87
aV17_nanoML.djctd
p88
aV180_nanoML.djctd
p89
aV181_nanoML.djctd
p90
aV182_nanoML.djctd
p91
aV183_nanoML.djctd
p92
aV184_nanoML.djctd
p93
aV185_nanoML.djctd
p94
aV186_nanoML.djctd
p95
aV187_nanoML.djctd
p96
aV188_nanoML.djctd
p97
aV189_nanoML.djctd
p98
aV18_nanoML.djctd
p99
aV190_nanoML.djctd
p100
aV191_nanoML.djctd
p101
aV192_nanoML.djctd
p102
aV193_nanoML.djctd
p103
aV194_nanoML.djctd
p104
aV195_nanoML.djctd
p105
aV196_nanoML.djctd
p106
aV197_nanoML.djctd
p107
aV198_nanoML.djctd
p108
aV199_nanoML.djctd
p109
aV19_nanoML.djctd
p110
aV1_nanoML.djctd
p111
aV200_nanoML.djctd
p112
aV20_nanoML.djctd
p113
aV21_nanoML.djctd
p114
aV22_nanoML.djctd
p115
aV23_nanoML.djctd
p116
aV24_nanoML.djctd
p117
aV25_nanoML.djctd
p118
aV26_nanoML.djctd
p119
aV27_nanoML.djctd
p120
aV28_nanoML.djctd
p121
aV29_nanoML.djctd
p122
aV2_nanoML.djctd
p123
aV30_nanoML.djctd
p124
aV31_nanoML.djctd
p125
aV32_nanoML.djctd
p126
aV33_nanoML.djctd
p127
aV34_nanoML.djctd
p128
aV35_nanoML.djctd
p129
aV36_nanoML.djctd
p130
aV37_nanoML.djctd
p131
aV38_nanoML.djctd
p132
aV39_nanoML.djctd
p133
aV3_nanoML.djctd
p134
aV40_nanoML.djctd
p135
aV41_nanoML.djctd
p136
aV42_nanoML.djctd
p137
aV43_nanoML.djctd
p138
aV44_nanoML.djctd
p139
aV45_nanoML.djctd
p140
aV46_nanoML.djctd
p141
aV47_nanoML.djctd
p142
aV48_nanoML.djctd
p143
aV49_nanoML.djctd
p144
aV4_nanoML.djctd
p145
aV50_nanoML.djctd
p146
aV51_nanoML.djctd
p147
aV52_nanoML.djctd
p148
aV53_nanoML.djctd
p149
aV54_nanoML.djctd
p150
aV55_nanoML.djctd
p151
aV56_nanoML.djctd
p152
aV57_nanoML.djctd
p153
aV58_nanoML.djctd
p154
aV59_nanoML.djctd
p155
aV5_nanoML.djctd
p156
aV60_nanoML.djctd
p157
aV61_nanoML.djctd
p158
aV62_nanoML.djctd
p159
aV63_nanoML.djctd
p160
aV64_nanoML.djctd
p161
aV66_nanoML.djctd
p162
aV67_nanoML.djctd
p163
aV68_nanoML.djctd
p164
aV69_nanoML.djctd
p165
aV6_nanoML.djctd
p166
aV70_nanoML.djctd
p167
aV71_nanoML.djctd
p168
aV72_nanoML.djctd
p169
a.(lp0
.cdatastructures.TrainData_NanoML
TrainData_NanoML
p0
.(dp0
.L80000L
.I00
.(dp0
.